; ModuleID = '51/399.c'
source_filename = "51/399.c"
target datalayout = "e-m:e-p270:32:32-p271:32:32-p272:64:64-i64:64-f80:128-n8:16:32:64-S128"
target triple = "x86_64-pc-linux-gnu"

@.str = private unnamed_addr constant [3 x i8] c"%d\00", align 1
@.str.1 = private unnamed_addr constant [3 x i8] c"%s\00", align 1
@.str.2 = private unnamed_addr constant [3 x i8] c"NO\00", align 1
@.str.3 = private unnamed_addr constant [4 x i8] c"%d\0A\00", align 1
@.str.4 = private unnamed_addr constant [4 x i8] c"%s\0A\00", align 1

; Function Attrs: noinline nounwind uwtable
define dso_local i32 @main() #0 {
  %1 = alloca i32, align 4
  %2 = alloca i32, align 4
  %3 = alloca i32, align 4
  %4 = alloca i32, align 4
  %5 = alloca i32, align 4
  %6 = alloca [1000 x i8], align 16
  %7 = alloca [1000 x [20 x i8]], align 16
  %8 = alloca i32, align 4
  %9 = alloca [1000 x i32], align 16
  %10 = alloca i32, align 4
  store i32 0, i32* %1, align 4
  %11 = call i32 (i8*, ...) @__isoc99_scanf(i8* getelementptr inbounds ([3 x i8], [3 x i8]* @.str, i64 0, i64 0), i32* %2)
  %12 = getelementptr inbounds [1000 x i8], [1000 x i8]* %6, i64 0, i64 0
  %13 = call i32 (i8*, ...) @__isoc99_scanf(i8* getelementptr inbounds ([3 x i8], [3 x i8]* @.str.1, i64 0, i64 0), i8* %12)
  %14 = getelementptr inbounds [1000 x i8], [1000 x i8]* %6, i64 0, i64 0
  %15 = call i64 @strlen(i8* %14) #4
  %16 = trunc i64 %15 to i32
  store i32 %16, i32* %3, align 4
  store i32 0, i32* %8, align 4
  store i32 0, i32* %4, align 4
  br label %17

17:                                               ; preds = %47, %0
  %18 = load i32, i32* %4, align 4
  %19 = load i32, i32* %3, align 4
  %20 = load i32, i32* %2, align 4
  %21 = sub nsw i32 %19, %20
  %22 = add nsw i32 %21, 2
  %23 = icmp slt i32 %18, %22
  br i1 %23, label %24, label %50

24:                                               ; preds = %17
  store i32 0, i32* %5, align 4
  br label %25

25:                                               ; preds = %42, %24
  %26 = load i32, i32* %5, align 4
  %27 = load i32, i32* %2, align 4
  %28 = icmp slt i32 %26, %27
  br i1 %28, label %29, label %45

29:                                               ; preds = %25
  %30 = load i32, i32* %4, align 4
  %31 = load i32, i32* %5, align 4
  %32 = add nsw i32 %30, %31
  %33 = sext i32 %32 to i64
  %34 = getelementptr inbounds [1000 x i8], [1000 x i8]* %6, i64 0, i64 %33
  %35 = load i8, i8* %34, align 1
  %36 = load i32, i32* %4, align 4
  %37 = sext i32 %36 to i64
  %38 = getelementptr inbounds [1000 x [20 x i8]], [1000 x [20 x i8]]* %7, i64 0, i64 %37
  %39 = load i32, i32* %5, align 4
  %40 = sext i32 %39 to i64
  %41 = getelementptr inbounds [20 x i8], [20 x i8]* %38, i64 0, i64 %40
  store i8 %35, i8* %41, align 1
  br label %42

42:                                               ; preds = %29
  %43 = load i32, i32* %5, align 4
  %44 = add nsw i32 %43, 1
  store i32 %44, i32* %5, align 4
  br label %25

45:                                               ; preds = %25
  %46 = load i32, i32* %4, align 4
  store i32 %46, i32* %8, align 4
  br label %47

47:                                               ; preds = %45
  %48 = load i32, i32* %4, align 4
  %49 = add nsw i32 %48, 1
  store i32 %49, i32* %4, align 4
  br label %17

50:                                               ; preds = %17
  store i32 0, i32* %4, align 4
  br label %51

51:                                               ; preds = %62, %50
  %52 = load i32, i32* %4, align 4
  %53 = load i32, i32* %8, align 4
  %54 = icmp slt i32 %52, %53
  br i1 %54, label %55, label %65

55:                                               ; preds = %51
  %56 = load i32, i32* %4, align 4
  %57 = sext i32 %56 to i64
  %58 = getelementptr inbounds [1000 x [20 x i8]], [1000 x [20 x i8]]* %7, i64 0, i64 %57
  %59 = load i32, i32* %2, align 4
  %60 = sext i32 %59 to i64
  %61 = getelementptr inbounds [20 x i8], [20 x i8]* %58, i64 0, i64 %60
  store i8 0, i8* %61, align 1
  br label %62

62:                                               ; preds = %55
  %63 = load i32, i32* %4, align 4
  %64 = add nsw i32 %63, 1
  store i32 %64, i32* %4, align 4
  br label %51

65:                                               ; preds = %51
  %66 = bitcast [1000 x i32]* %9 to i8*
  call void @llvm.memset.p0i8.i64(i8* align 16 %66, i8 0, i64 4000, i1 false)
  store i32 0, i32* %4, align 4
  br label %67

67:                                               ; preds = %99, %65
  %68 = load i32, i32* %4, align 4
  %69 = load i32, i32* %8, align 4
  %70 = icmp slt i32 %68, %69
  br i1 %70, label %71, label %102

71:                                               ; preds = %67
  %72 = load i32, i32* %4, align 4
  store i32 %72, i32* %5, align 4
  br label %73

73:                                               ; preds = %95, %71
  %74 = load i32, i32* %5, align 4
  %75 = load i32, i32* %8, align 4
  %76 = icmp slt i32 %74, %75
  br i1 %76, label %77, label %98

77:                                               ; preds = %73
  %78 = load i32, i32* %4, align 4
  %79 = sext i32 %78 to i64
  %80 = getelementptr inbounds [1000 x [20 x i8]], [1000 x [20 x i8]]* %7, i64 0, i64 %79
  %81 = getelementptr inbounds [20 x i8], [20 x i8]* %80, i64 0, i64 0
  %82 = load i32, i32* %5, align 4
  %83 = sext i32 %82 to i64
  %84 = getelementptr inbounds [1000 x [20 x i8]], [1000 x [20 x i8]]* %7, i64 0, i64 %83
  %85 = getelementptr inbounds [20 x i8], [20 x i8]* %84, i64 0, i64 0
  %86 = call i32 @strcmp(i8* %81, i8* %85) #4
  %87 = icmp eq i32 %86, 0
  br i1 %87, label %88, label %94

88:                                               ; preds = %77
  %89 = load i32, i32* %4, align 4
  %90 = sext i32 %89 to i64
  %91 = getelementptr inbounds [1000 x i32], [1000 x i32]* %9, i64 0, i64 %90
  %92 = load i32, i32* %91, align 4
  %93 = add nsw i32 %92, 1
  store i32 %93, i32* %91, align 4
  br label %94

94:                                               ; preds = %88, %77
  br label %95

95:                                               ; preds = %94
  %96 = load i32, i32* %5, align 4
  %97 = add nsw i32 %96, 1
  store i32 %97, i32* %5, align 4
  br label %73

98:                                               ; preds = %73
  br label %99

99:                                               ; preds = %98
  %100 = load i32, i32* %4, align 4
  %101 = add nsw i32 %100, 1
  store i32 %101, i32* %4, align 4
  br label %67

102:                                              ; preds = %67
  store i32 1, i32* %10, align 4
  store i32 0, i32* %4, align 4
  br label %103

103:                                              ; preds = %120, %102
  %104 = load i32, i32* %4, align 4
  %105 = load i32, i32* %8, align 4
  %106 = icmp slt i32 %104, %105
  br i1 %106, label %107, label %123

107:                                              ; preds = %103
  %108 = load i32, i32* %10, align 4
  %109 = load i32, i32* %4, align 4
  %110 = sext i32 %109 to i64
  %111 = getelementptr inbounds [1000 x i32], [1000 x i32]* %9, i64 0, i64 %110
  %112 = load i32, i32* %111, align 4
  %113 = icmp sle i32 %108, %112
  br i1 %113, label %114, label %119

114:                                              ; preds = %107
  %115 = load i32, i32* %4, align 4
  %116 = sext i32 %115 to i64
  %117 = getelementptr inbounds [1000 x i32], [1000 x i32]* %9, i64 0, i64 %116
  %118 = load i32, i32* %117, align 4
  store i32 %118, i32* %10, align 4
  br label %119

119:                                              ; preds = %114, %107
  br label %120

120:                                              ; preds = %119
  %121 = load i32, i32* %4, align 4
  %122 = add nsw i32 %121, 1
  store i32 %122, i32* %4, align 4
  br label %103

123:                                              ; preds = %103
  %124 = load i32, i32* %10, align 4
  %125 = icmp eq i32 %124, 1
  br i1 %125, label %126, label %128

126:                                              ; preds = %123
  %127 = call i32 (i8*, ...) @printf(i8* getelementptr inbounds ([3 x i8], [3 x i8]* @.str.2, i64 0, i64 0))
  br label %153

128:                                              ; preds = %123
  %129 = load i32, i32* %10, align 4
  %130 = call i32 (i8*, ...) @printf(i8* getelementptr inbounds ([4 x i8], [4 x i8]* @.str.3, i64 0, i64 0), i32 %129)
  store i32 0, i32* %4, align 4
  br label %131

131:                                              ; preds = %149, %128
  %132 = load i32, i32* %4, align 4
  %133 = load i32, i32* %8, align 4
  %134 = icmp slt i32 %132, %133
  br i1 %134, label %135, label %152

135:                                              ; preds = %131
  %136 = load i32, i32* %10, align 4
  %137 = load i32, i32* %4, align 4
  %138 = sext i32 %137 to i64
  %139 = getelementptr inbounds [1000 x i32], [1000 x i32]* %9, i64 0, i64 %138
  %140 = load i32, i32* %139, align 4
  %141 = icmp eq i32 %136, %140
  br i1 %141, label %142, label %148

142:                                              ; preds = %135
  %143 = load i32, i32* %4, align 4
  %144 = sext i32 %143 to i64
  %145 = getelementptr inbounds [1000 x [20 x i8]], [1000 x [20 x i8]]* %7, i64 0, i64 %144
  %146 = getelementptr inbounds [20 x i8], [20 x i8]* %145, i64 0, i64 0
  %147 = call i32 (i8*, ...) @printf(i8* getelementptr inbounds ([4 x i8], [4 x i8]* @.str.4, i64 0, i64 0), i8* %146)
  br label %148

148:                                              ; preds = %142, %135
  br label %149

149:                                              ; preds = %148
  %150 = load i32, i32* %4, align 4
  %151 = add nsw i32 %150, 1
  store i32 %151, i32* %4, align 4
  br label %131

152:                                              ; preds = %131
  br label %153

153:                                              ; preds = %152, %126
  %154 = load i32, i32* %1, align 4
  ret i32 %154
}

declare dso_local i32 @__isoc99_scanf(i8*, ...) #1

; Function Attrs: nounwind readonly
declare dso_local i64 @strlen(i8*) #2

; Function Attrs: argmemonly nounwind willreturn
declare void @llvm.memset.p0i8.i64(i8* nocapture writeonly, i8, i64, i1 immarg) #3

; Function Attrs: nounwind readonly
declare dso_local i32 @strcmp(i8*, i8*) #2

declare dso_local i32 @printf(i8*, ...) #1


!llvm.module.flags = !{!0}
!llvm.ident = !{!1}

!0 = !{i32 1, !"wchar_size", i32 4}
!1 = !{!"clang version 10.0.0-4ubuntu1 "}
